target datalayout = "e-m:e-p270:32:32-p271:32:32-p272:64:64-i64:64-i128:128-f80:128-n8:16:32:64-S128"
target triple = "x86_64-pc-linux-gnu"

%"class.cv::RNG" = type { i64 }
%"class.cv::Mat" = type { i32, i32, i32, i32, ptr, ptr, ptr, ptr, ptr, ptr, %"struct.cv::MatSize", %"struct.cv::MatStep" }
%"struct.cv::MatSize" = type { ptr }
%"struct.cv::MatStep" = type { ptr, [2 x i64] }
%"class.cv::Size_" = type { i32, i32 }
%"class.cv::_OutputArray" = type { %"class.cv::_InputArray" }
%"class.cv::_InputArray" = type { i32, ptr, %"class.cv::Size_" }
%"struct.cv::CoreTLSData" = type { %"class.cv::RNG", %"class.cv::ocl::OpenCLExecutionContext", i8, i32, i32, i32 }
%"class.cv::ocl::OpenCLExecutionContext" = type { %"class.std::shared_ptr" }
%"class.std::shared_ptr" = type { %"class.std::__shared_ptr" }
%"class.std::__shared_ptr" = type { ptr, %"class.std::__shared_count" }
%"class.std::__shared_count" = type { ptr }
%"class.cv::_InputOutputArray" = type { %"class.cv::_OutputArray" }

; Function Attrs: mustprogress nounwind uwtable
define linkonce_odr hidden void @_ZN2cv5Size_IiEC2Ev(ptr noundef nonnull align 4 dereferenceable(8) %0) unnamed_addr #4 comdat align 2 {
  %2 = alloca ptr, align 8
  store ptr %0, ptr %2, align 8
  %3 = load ptr, ptr %2, align 8
  %4 = getelementptr inbounds %"class.cv::Size_", ptr %3, i32 0, i32 0
  store i32 0, ptr %4, align 4
  %5 = getelementptr inbounds %"class.cv::Size_", ptr %3, i32 0, i32 1
  store i32 0, ptr %5, align 4
  ret void
}

; Function Attrs: mustprogress nounwind uwtable
define linkonce_odr hidden void @_ZN2cv11_InputArrayD2Ev(ptr noundef nonnull align 8 dereferenceable(24) %0) unnamed_addr #4 comdat align 2 {
  %2 = alloca ptr, align 8
  store ptr %0, ptr %2, align 8
  ret void
}

; Function Attrs: mustprogress uwtable
define linkonce_odr hidden void @_ZN2cv11_InputArrayC2Ev(ptr noundef nonnull align 8 dereferenceable(24) %0) unnamed_addr #0 comdat align 2 {
  %2 = alloca ptr, align 8
  store ptr %0, ptr %2, align 8
  %3 = load ptr, ptr %2, align 8
  %4 = getelementptr inbounds %"class.cv::_InputArray", ptr %3, i32 0, i32 2
  call void @_ZN2cv5Size_IiEC2Ev(ptr noundef nonnull align 4 dereferenceable(8) %4)
  call void @_ZN2cv11_InputArray4initEiPKv(ptr noundef nonnull align 8 dereferenceable(24) %3, i32 noundef 0, ptr noundef null)
  ret void
}

; Function Attrs: mustprogress nounwind uwtable
define linkonce_odr hidden void @_ZN2cv12_OutputArrayD2Ev(ptr noundef nonnull align 8 dereferenceable(24) %0) unnamed_addr #4 comdat align 2 {
  %2 = alloca ptr, align 8
  store ptr %0, ptr %2, align 8
  %3 = load ptr, ptr %2, align 8
  call void @_ZN2cv11_InputArrayD2Ev(ptr noundef nonnull align 8 dereferenceable(24) %3) #12
  ret void
}

; Function Attrs: mustprogress nounwind uwtable
define linkonce_odr hidden void @_ZN2cv11_InputArray4initEiPKv(ptr noundef nonnull align 8 dereferenceable(24) %0, i32 noundef %1, ptr noundef %2) #4 comdat align 2 {
  %4 = alloca ptr, align 8
  %5 = alloca i32, align 4
  %6 = alloca ptr, align 8
  store ptr %0, ptr %4, align 8
  store i32 %1, ptr %5, align 4
  store ptr %2, ptr %6, align 8
  %7 = load ptr, ptr %4, align 8
  %8 = load i32, ptr %5, align 4
  %9 = getelementptr inbounds %"class.cv::_InputArray", ptr %7, i32 0, i32 0
  store i32 %8, ptr %9, align 8
  %10 = load ptr, ptr %6, align 8
  %11 = getelementptr inbounds %"class.cv::_InputArray", ptr %7, i32 0, i32 1
  store ptr %10, ptr %11, align 8
  ret void
}

; Function Attrs: mustprogress uwtable
define linkonce_odr hidden void @_ZN2cv12_OutputArrayC2Ev(ptr noundef nonnull align 8 dereferenceable(24) %0) unnamed_addr #0 comdat align 2 {
  %2 = alloca ptr, align 8
  store ptr %0, ptr %2, align 8
  %3 = load ptr, ptr %2, align 8
  call void @_ZN2cv11_InputArrayC2Ev(ptr noundef nonnull align 8 dereferenceable(24) %3)
  call void @_ZN2cv11_InputArray4initEiPKv(ptr noundef nonnull align 8 dereferenceable(24) %3, i32 noundef 33554432, ptr noundef null)
  ret void
}

; Function Attrs: mustprogress nounwind uwtable
define linkonce_odr hidden void @_ZN2cv17_InputOutputArrayD2Ev(ptr noundef nonnull align 8 dereferenceable(24) %0) unnamed_addr #4 comdat align 2 {
  %2 = alloca ptr, align 8
  store ptr %0, ptr %2, align 8
  %3 = load ptr, ptr %2, align 8
  call void @_ZN2cv12_OutputArrayD2Ev(ptr noundef nonnull align 8 dereferenceable(24) %3) #12
  ret void
}

; Function Attrs: mustprogress uwtable
define linkonce_odr hidden void @_ZN2cv17_InputOutputArrayC2ERNS_3MatE(ptr noundef nonnull align 8 dereferenceable(24) %0, ptr noundef nonnull align 8 dereferenceable(96) %1) unnamed_addr #0 comdat align 2 {
  %3 = alloca ptr, align 8
  %4 = alloca ptr, align 8
  store ptr %0, ptr %3, align 8
  store ptr %1, ptr %4, align 8
  %5 = load ptr, ptr %3, align 8
  call void @_ZN2cv12_OutputArrayC2Ev(ptr noundef nonnull align 8 dereferenceable(24) %5)
  %6 = load ptr, ptr %4, align 8
  call void @_ZN2cv11_InputArray4initEiPKv(ptr noundef nonnull align 8 dereferenceable(24) %5, i32 noundef 50397184, ptr noundef %6)
  ret void
}

; Function Attrs: mustprogress uwtable
define noundef nonnull align 8 dereferenceable(8) ptr @_ZN2cv6theRNGEv() #0 {
  %1 = call noundef nonnull align 8 dereferenceable(40) ptr @_ZN2cv14getCoreTlsDataEv()
  %2 = getelementptr inbounds %"struct.cv::CoreTLSData", ptr %1, i32 0, i32 0
  ret ptr %2
}

; Function Attrs: mustprogress uwtable
define void @cvRandShuffle(ptr noundef %0, ptr noundef %1, double noundef %2) #0 personality ptr @__gxx_personality_v0 {
  %4 = alloca ptr, align 8
  %5 = alloca ptr, align 8
  %6 = alloca double, align 8
  %7 = alloca %"class.cv::Mat", align 8
  %8 = alloca ptr, align 8
  %9 = alloca ptr, align 8
  %10 = alloca i32, align 4
  %11 = alloca %"class.cv::_InputOutputArray", align 8
  store ptr %0, ptr %4, align 8
  store ptr %1, ptr %5, align 8
  store double %2, ptr %6, align 8
  %12 = load ptr, ptr %4, align 8
  call void @_ZN2cv10cvarrToMatEPKvbbiPNS_10AutoBufferIdLm136EEE(ptr dead_on_unwind writable sret(%"class.cv::Mat") align 8 %7, ptr noundef %12, i1 noundef zeroext false, i1 noundef zeroext true, i32 noundef 0, ptr noundef null)
  %13 = load ptr, ptr %5, align 8
  %14 = icmp ne ptr %13, null
  br i1 %14, label %15, label %17

15:                                               ; preds = %3
  %16 = load ptr, ptr %5, align 8
  br label %20

17:                                               ; preds = %3
  %18 = invoke noundef nonnull align 8 dereferenceable(8) ptr @_ZN2cv6theRNGEv()
          to label %19 unwind label %26

19:                                               ; preds = %17
  br label %20

20:                                               ; preds = %19, %15
  %21 = phi ptr [ %16, %15 ], [ %18, %19 ]
  store ptr %21, ptr %8, align 8
  invoke void @_ZN2cv17_InputOutputArrayC2ERNS_3MatE(ptr noundef nonnull align 8 dereferenceable(24) %11, ptr noundef nonnull align 8 dereferenceable(96) %7)
          to label %22 unwind label %26

22:                                               ; preds = %20
  %23 = load double, ptr %6, align 8
  %24 = load ptr, ptr %8, align 8
  invoke void @_ZN2cv11randShuffleERKNS_17_InputOutputArrayEdPNS_3RNGE(ptr noundef nonnull align 8 dereferenceable(24) %11, double noundef %23, ptr noundef %24)
          to label %25 unwind label %30

25:                                               ; preds = %22
  call void @_ZN2cv17_InputOutputArrayD2Ev(ptr noundef nonnull align 8 dereferenceable(24) %11) #12
  call void @_ZN2cv3MatD1Ev(ptr noundef nonnull align 8 dereferenceable(96) %7) #12
  ret void

26:                                               ; preds = %20, %17
  %27 = landingpad { ptr, i32 }
          cleanup
  %28 = extractvalue { ptr, i32 } %27, 0
  store ptr %28, ptr %9, align 8
  %29 = extractvalue { ptr, i32 } %27, 1
  store i32 %29, ptr %10, align 4
  br label %34

30:                                               ; preds = %22
  %31 = landingpad { ptr, i32 }
          cleanup
  %32 = extractvalue { ptr, i32 } %31, 0
  store ptr %32, ptr %9, align 8
  %33 = extractvalue { ptr, i32 } %31, 1
  store i32 %33, ptr %10, align 4
  call void @_ZN2cv17_InputOutputArrayD2Ev(ptr noundef nonnull align 8 dereferenceable(24) %11) #12
  br label %34

34:                                               ; preds = %30, %26
  call void @_ZN2cv3MatD1Ev(ptr noundef nonnull align 8 dereferenceable(96) %7) #12
  br label %35

35:                                               ; preds = %34
  %36 = load ptr, ptr %9, align 8
  %37 = load i32, ptr %10, align 4
  %38 = insertvalue { ptr, i32 } poison, ptr %36, 0
  %39 = insertvalue { ptr, i32 } %38, i32 %37, 1
  resume { ptr, i32 } %39
}