; Function Attrs: mustprogress uwtable
define void @cvRandShuffle(ptr noundef %0, ptr noundef %1, double noundef %2) local_unnamed_addr #1 personality ptr @__gxx_personality_v0 {
  %4 = alloca %"class.cv::Mat", align 8
  %5 = alloca %"class.cv::_InputOutputArray", align 8
  call void @_ZN2cv10cvarrToMatEPKvbbiPNS_10AutoBufferIdLm136EEE(ptr dead_on_unwind nonnull writable sret(%"class.cv::Mat") align 8 %4, ptr noundef %0, i1 noundef zeroext false, i1 noundef zeroext true, i32 noundef 0, ptr noundef null)
  %.not = icmp eq ptr %1, null
  br i1 %.not, label %6, label %8

6:                                                ; preds = %3
  %7 = invoke noundef nonnull align 8 dereferenceable(40) ptr @_ZN2cv14getCoreTlsDataEv()
          to label %8 unwind label %13

8:                                                ; preds = %3, %6
  %9 = phi ptr [ %1, %3 ], [ %7, %6 ]
  %10 = getelementptr inbounds i8, ptr %5, i64 8
  %11 = getelementptr inbounds i8, ptr %5, i64 16
  store i64 0, ptr %11, align 8
  store i32 50397184, ptr %5, align 8
  store ptr %4, ptr %10, align 8
  invoke void @_ZN2cv11randShuffleERKNS_17_InputOutputArrayEdPNS_3RNGE(ptr noundef nonnull align 8 dereferenceable(24) %5, double noundef %2, ptr noundef nonnull %9)
          to label %12 unwind label %15

12:                                               ; preds = %8
  call void @_ZN2cv3MatD1Ev(ptr noundef nonnull align 8 dereferenceable(96) %4) #19
  ret void

13:                                               ; preds = %6
  %14 = landingpad { ptr, i32 }
          cleanup
  br label %17

15:                                               ; preds = %8
  %16 = landingpad { ptr, i32 }
          cleanup
  br label %17

17:                                               ; preds = %15, %13
  %.pn = phi { ptr, i32 } [ %16, %15 ], [ %14, %13 ]
  call void @_ZN2cv3MatD1Ev(ptr noundef nonnull align 8 dereferenceable(96) %4) #19
  resume { ptr, i32 } %.pn
}